; Function Attrs: mustprogress uwtable
define dso_local noundef i32 @trim(ptr noundef %src, i32 noundef %srcLen, ptr noundef %status) local_unnamed_addr #0 personality ptr @__gxx_personality_v0 {
invoke.cont:
  %agg.tmp = alloca %"class.icu_75::UnicodeString", align 8
  %agg.tmp1 = alloca %"class.icu_75::UnicodeString", align 8
  %agg.tmp4 = alloca %"class.icu_75::UnicodeString", align 8
  %agg.tmp5 = alloca %"class.icu_75::UnicodeString", align 8
  %agg.tmp13 = alloca %"class.icu_75::UnicodeString", align 8
  %agg.tmp14 = alloca %"class.icu_75::UnicodeString", align 8
  call void @_ZN6icu_7513UnicodeStringC1EPKc(ptr noundef nonnull align 8 dereferenceable(64) %agg.tmp, ptr noundef nonnull @.str.2)
  store ptr getelementptr inbounds ({ [13 x ptr] }, ptr @_ZTVN6icu_7513UnicodeStringE, i64 0, i32 0, i64 2), ptr %agg.tmp1, align 8
  %fUnion2.i = getelementptr inbounds i8, ptr %agg.tmp1, i64 8
  store i16 2, ptr %fUnion2.i, align 8
  %call = invoke i32 @removeText(ptr noundef %src, i32 noundef %srcLen, ptr noundef nonnull %agg.tmp, i32 noundef 0, ptr noundef nonnull %agg.tmp1, ptr noundef %status)
          to label %invoke.cont7 unwind label %lpad2

invoke.cont7:                                     ; preds = %invoke.cont
  call void @_ZN6icu_7513UnicodeStringD1Ev(ptr noundef nonnull align 8 dereferenceable(64) %agg.tmp1) #5
  call void @_ZN6icu_7513UnicodeStringD1Ev(ptr noundef nonnull align 8 dereferenceable(64) %agg.tmp) #5
  call void @_ZN6icu_7513UnicodeStringC1EPKc(ptr noundef nonnull align 8 dereferenceable(64) %agg.tmp4, ptr noundef nonnull @.str.3)
  store ptr getelementptr inbounds ({ [13 x ptr] }, ptr @_ZTVN6icu_7513UnicodeStringE, i64 0, i32 0, i64 2), ptr %agg.tmp5, align 8
  %fUnion2.i14 = getelementptr inbounds i8, ptr %agg.tmp5, i64 8
  store i16 2, ptr %fUnion2.i14, align 8
  %call10 = invoke i32 @removeText(ptr noundef %src, i32 noundef %call, ptr noundef nonnull %agg.tmp4, i32 noundef 0, ptr noundef nonnull %agg.tmp5, ptr noundef %status)
          to label %invoke.cont16 unwind label %lpad8

invoke.cont16:                                    ; preds = %invoke.cont7
  call void @_ZN6icu_7513UnicodeStringD1Ev(ptr noundef nonnull align 8 dereferenceable(64) %agg.tmp5) #5
  call void @_ZN6icu_7513UnicodeStringD1Ev(ptr noundef nonnull align 8 dereferenceable(64) %agg.tmp4) #5
  call void @_ZN6icu_7513UnicodeStringC1EPKc(ptr noundef nonnull align 8 dereferenceable(64) %agg.tmp13, ptr noundef nonnull @.str.4)
  store ptr getelementptr inbounds ({ [13 x ptr] }, ptr @_ZTVN6icu_7513UnicodeStringE, i64 0, i32 0, i64 2), ptr %agg.tmp14, align 8
  %fUnion2.i15 = getelementptr inbounds i8, ptr %agg.tmp14, i64 8
  store i16 2, ptr %fUnion2.i15, align 8
  %call19 = invoke i32 @removeText(ptr noundef %src, i32 noundef %call10, ptr noundef nonnull %agg.tmp13, i32 noundef 0, ptr noundef nonnull %agg.tmp14, ptr noundef %status)
          to label %invoke.cont18 unwind label %lpad17

invoke.cont18:                                    ; preds = %invoke.cont16
  call void @_ZN6icu_7513UnicodeStringD1Ev(ptr noundef nonnull align 8 dereferenceable(64) %agg.tmp14) #5
  call void @_ZN6icu_7513UnicodeStringD1Ev(ptr noundef nonnull align 8 dereferenceable(64) %agg.tmp13) #5
  ret i32 %call19

lpad2:                                            ; preds = %invoke.cont
  %0 = landingpad { ptr, i32 }
          cleanup
  br label %eh.resume

lpad8:                                            ; preds = %invoke.cont7
  %1 = landingpad { ptr, i32 }
          cleanup
  br label %eh.resume

lpad17:                                           ; preds = %invoke.cont16
  %2 = landingpad { ptr, i32 }
          cleanup
  br label %eh.resume

eh.resume:                                        ; preds = %lpad17, %lpad8, %lpad2
  %agg.tmp14.sink = phi ptr [ %agg.tmp14, %lpad17 ], [ %agg.tmp5, %lpad8 ], [ %agg.tmp1, %lpad2 ]
  %agg.tmp13.sink = phi ptr [ %agg.tmp13, %lpad17 ], [ %agg.tmp4, %lpad8 ], [ %agg.tmp, %lpad2 ]
  %.pn11.pn = phi { ptr, i32 } [ %2, %lpad17 ], [ %1, %lpad8 ], [ %0, %lpad2 ]
  call void @_ZN6icu_7513UnicodeStringD1Ev(ptr noundef nonnull align 8 dereferenceable(64) %agg.tmp14.sink) #5
  call void @_ZN6icu_7513UnicodeStringD1Ev(ptr noundef nonnull align 8 dereferenceable(64) %agg.tmp13.sink) #5
  resume { ptr, i32 } %.pn11.pn
}